; Function Attrs: mustprogress uwtable
define noundef zeroext i1 @_ZN5Ipopt11TNLPAdapter6Eval_fERKNS_6VectorERd(ptr noundef nonnull align 8 captures(none) dereferenceable(600) %0, ptr noundef nonnull readonly align 8 captures(none) dereferenceable(205) %1, ptr noundef nonnull align 8 dereferenceable(8) %2) unnamed_addr #3 align 2 {
  %4 = getelementptr inbounds nuw i8, ptr %1, i64 48
  %5 = load i32, ptr %4, align 8, !tbaa !275
  %6 = getelementptr inbounds nuw i8, ptr %0, i64 352
  %7 = load i32, ptr %6, align 8, !tbaa !276
  %8 = icmp ne i32 %5, %7
  br i1 %8, label %9, label %_ZN5Ipopt11TNLPAdapter14update_local_xERKNS_6VectorE.exit

9:                                                ; preds = %3
  %10 = getelementptr inbounds nuw i8, ptr %0, i64 312
  %11 = load ptr, ptr %10, align 8, !tbaa !48
  tail call void @_ZN5Ipopt11TNLPAdapter7ResortXERKNS_6VectorEPdb(ptr noundef nonnull align 8 dereferenceable(600) %0, ptr noundef nonnull readonly align 8 dereferenceable(205) %1, ptr noundef %11, i1 noundef zeroext true)
  %12 = load i32, ptr %4, align 8, !tbaa !275
  store i32 %12, ptr %6, align 8, !tbaa !276
  br label %_ZN5Ipopt11TNLPAdapter14update_local_xERKNS_6VectorE.exit

_ZN5Ipopt11TNLPAdapter14update_local_xERKNS_6VectorE.exit: ; preds = %3, %9
  %13 = getelementptr inbounds nuw i8, ptr %0, i64 16
  %14 = load ptr, ptr %13, align 8, !tbaa !10
  %15 = getelementptr inbounds nuw i8, ptr %0, i64 160
  %16 = load i32, ptr %15, align 8, !tbaa !109
  %17 = getelementptr inbounds nuw i8, ptr %0, i64 312
  %18 = load ptr, ptr %17, align 8, !tbaa !48
  %19 = load ptr, ptr %14, align 8, !tbaa !8
  %20 = getelementptr inbounds nuw i8, ptr %19, i64 80
  %21 = load ptr, ptr %20, align 8
  %22 = tail call noundef zeroext i1 %21(ptr noundef nonnull align 8 dereferenceable(12) %14, i32 noundef %16, ptr noundef %18, i1 noundef zeroext %8, ptr noundef nonnull align 8 dereferenceable(8) %2)
  ret i1 %22
}